target datalayout = "e-m:e-p270:32:32-p271:32:32-p272:64:64-i64:64-i128:128-f80:128-n8:16:32:64-S128"
target triple = "x86_64-pc-linux-gnu"

%"class.llvm::Value" = type { i8, i8, i16, i32, ptr, ptr }

; Function Attrs: mustprogress nounwind uwtable
define linkonce_odr hidden noundef zeroext i16 @_ZNK4llvm5Value24getSubclassDataFromValueEv(ptr noundef nonnull align 8 dereferenceable(24) %0) #1 comdat align 2 {
  %2 = alloca ptr, align 8
  store ptr %0, ptr %2, align 8
  %3 = load ptr, ptr %2, align 8
  %4 = getelementptr inbounds nuw %"class.llvm::Value", ptr %3, i32 0, i32 2
  %5 = load i16, ptr %4, align 2
  ret i16 %5
}

; Function Attrs: mustprogress nounwind uwtable
define linkonce_odr hidden noundef zeroext i1 @_ZN4llvm21isScopedEHPersonalityENS_13EHPersonalityE(i32 noundef %0) #1 comdat {
  %2 = alloca i1, align 1
  %3 = alloca i32, align 4
  store i32 %0, ptr %3, align 4
  %4 = load i32, ptr %3, align 4
  switch i32 %4, label %6 [
    i32 9, label %5
    i32 7, label %5
    i32 8, label %5
    i32 10, label %5
    i32 12, label %5
  ]

5:                                                ; preds = %1, %1, %1, %1, %1
  store i1 true, ptr %2, align 1
  br label %7

6:                                                ; preds = %1
  store i1 false, ptr %2, align 1
  br label %7

7:                                                ; preds = %6, %5
  %8 = load i1, ptr %2, align 1
  ret i1 %8
}

; Function Attrs: mustprogress nounwind uwtable
define linkonce_odr hidden noundef zeroext i1 @_ZNK4llvm8Function16hasPersonalityFnEv(ptr noundef nonnull align 8 dereferenceable(136) %0) #1 comdat align 2 {
  %2 = alloca ptr, align 8
  store ptr %0, ptr %2, align 8
  %3 = load ptr, ptr %2, align 8
  %4 = call noundef zeroext i16 @_ZNK4llvm5Value24getSubclassDataFromValueEv(ptr noundef nonnull align 8 dereferenceable(24) %3)
  %5 = zext i16 %4 to i32
  %6 = and i32 %5, 8
  %7 = icmp ne i32 %6, 0
  ret i1 %7
}

; Function Attrs: mustprogress nounwind uwtable
define dso_local noundef zeroext i1 @_ZNK4llvm16HotColdSplitting17shouldOutlineFromERKNS_8FunctionE(ptr noundef nonnull align 8 dereferenceable(64) %0, ptr noundef nonnull align 8 dereferenceable(136) %1) #1 align 2 {
  %3 = alloca i1, align 1
  %4 = alloca ptr, align 8
  %5 = alloca ptr, align 8
  store ptr %0, ptr %4, align 8
  store ptr %1, ptr %5, align 8
  %6 = load ptr, ptr %5, align 8
  %7 = call noundef zeroext i1 @_ZNK4llvm8Function14hasFnAttributeENS_9Attribute8AttrKindE(ptr noundef nonnull align 8 dereferenceable(136) %6, i32 noundef 3)
  br i1 %7, label %8, label %9

8:                                                ; preds = %2
  store i1 false, ptr %3, align 1
  br label %41

9:                                                ; preds = %2
  %10 = load ptr, ptr %5, align 8
  %11 = call noundef zeroext i1 @_ZNK4llvm8Function14hasFnAttributeENS_9Attribute8AttrKindE(ptr noundef nonnull align 8 dereferenceable(136) %10, i32 noundef 29)
  br i1 %11, label %12, label %13

12:                                               ; preds = %9
  store i1 false, ptr %3, align 1
  br label %41

13:                                               ; preds = %9
  %14 = load ptr, ptr %5, align 8
  %15 = call noundef zeroext i1 @_ZNK4llvm8Function14hasFnAttributeENS_9Attribute8AttrKindE(ptr noundef nonnull align 8 dereferenceable(136) %14, i32 noundef 34)
  br i1 %15, label %16, label %17

16:                                               ; preds = %13
  store i1 false, ptr %3, align 1
  br label %41

17:                                               ; preds = %13
  %18 = load ptr, ptr %5, align 8
  %19 = call noundef zeroext i1 @_ZNK4llvm8Function14hasFnAttributeENS_9Attribute8AttrKindE(ptr noundef nonnull align 8 dereferenceable(136) %18, i32 noundef 54)
  br i1 %19, label %29, label %20

20:                                               ; preds = %17
  %21 = load ptr, ptr %5, align 8
  %22 = call noundef zeroext i1 @_ZNK4llvm8Function14hasFnAttributeENS_9Attribute8AttrKindE(ptr noundef nonnull align 8 dereferenceable(136) %21, i32 noundef 55)
  br i1 %22, label %29, label %23

23:                                               ; preds = %20
  %24 = load ptr, ptr %5, align 8
  %25 = call noundef zeroext i1 @_ZNK4llvm8Function14hasFnAttributeENS_9Attribute8AttrKindE(ptr noundef nonnull align 8 dereferenceable(136) %24, i32 noundef 60)
  br i1 %25, label %29, label %26

26:                                               ; preds = %23
  %27 = load ptr, ptr %5, align 8
  %28 = call noundef zeroext i1 @_ZNK4llvm8Function14hasFnAttributeENS_9Attribute8AttrKindE(ptr noundef nonnull align 8 dereferenceable(136) %27, i32 noundef 57)
  br i1 %28, label %29, label %30

29:                                               ; preds = %26, %23, %20, %17
  store i1 false, ptr %3, align 1
  br label %41

30:                                               ; preds = %26
  %31 = load ptr, ptr %5, align 8
  %32 = call noundef zeroext i1 @_ZNK4llvm8Function16hasPersonalityFnEv(ptr noundef nonnull align 8 dereferenceable(136) %31)
  br i1 %32, label %33, label %40

33:                                               ; preds = %30
  %34 = load ptr, ptr %5, align 8
  %35 = call noundef ptr @_ZNK4llvm8Function16getPersonalityFnEv(ptr noundef nonnull align 8 dereferenceable(136) %34)
  %36 = call noundef i32 @_ZN4llvm21classifyEHPersonalityEPKNS_5ValueE(ptr noundef %35)
  %37 = call noundef zeroext i1 @_ZN4llvm21isScopedEHPersonalityENS_13EHPersonalityE(i32 noundef %36)
  br i1 %37, label %38, label %39

38:                                               ; preds = %33
  store i1 false, ptr %3, align 1
  br label %41

39:                                               ; preds = %33
  br label %40

40:                                               ; preds = %39, %30
  store i1 true, ptr %3, align 1
  br label %41

41:                                               ; preds = %40, %38, %29, %16, %12, %8
  %42 = load i1, ptr %3, align 1
  ret i1 %42
}