; Function Attrs: mustprogress nounwind uwtable
define dso_local noundef zeroext i1 @_ZNK4llvm16HotColdSplitting17shouldOutlineFromERKNS_8FunctionE(ptr nocapture nonnull readnone align 8 %0, ptr noundef nonnull align 8 dereferenceable(136) %1) local_unnamed_addr #0 align 2 {
  %3 = tail call noundef zeroext i1 @_ZNK4llvm8Function14hasFnAttributeENS_9Attribute8AttrKindE(ptr noundef nonnull align 8 dereferenceable(136) %1, i32 noundef 3) #19
  br i1 %3, label %_ZN4llvm21isScopedEHPersonalityENS_13EHPersonalityE.exit, label %4

4:                                                ; preds = %2
  %5 = tail call noundef zeroext i1 @_ZNK4llvm8Function14hasFnAttributeENS_9Attribute8AttrKindE(ptr noundef nonnull align 8 dereferenceable(136) %1, i32 noundef 29) #19
  br i1 %5, label %_ZN4llvm21isScopedEHPersonalityENS_13EHPersonalityE.exit, label %6

6:                                                ; preds = %4
  %7 = tail call noundef zeroext i1 @_ZNK4llvm8Function14hasFnAttributeENS_9Attribute8AttrKindE(ptr noundef nonnull align 8 dereferenceable(136) %1, i32 noundef 34) #19
  br i1 %7, label %_ZN4llvm21isScopedEHPersonalityENS_13EHPersonalityE.exit, label %8

8:                                                ; preds = %6
  %9 = tail call noundef zeroext i1 @_ZNK4llvm8Function14hasFnAttributeENS_9Attribute8AttrKindE(ptr noundef nonnull align 8 dereferenceable(136) %1, i32 noundef 54) #19
  br i1 %9, label %_ZN4llvm21isScopedEHPersonalityENS_13EHPersonalityE.exit, label %10

10:                                               ; preds = %8
  %11 = tail call noundef zeroext i1 @_ZNK4llvm8Function14hasFnAttributeENS_9Attribute8AttrKindE(ptr noundef nonnull align 8 dereferenceable(136) %1, i32 noundef 55) #19
  br i1 %11, label %_ZN4llvm21isScopedEHPersonalityENS_13EHPersonalityE.exit, label %12

12:                                               ; preds = %10
  %13 = tail call noundef zeroext i1 @_ZNK4llvm8Function14hasFnAttributeENS_9Attribute8AttrKindE(ptr noundef nonnull align 8 dereferenceable(136) %1, i32 noundef 60) #19
  br i1 %13, label %_ZN4llvm21isScopedEHPersonalityENS_13EHPersonalityE.exit, label %14

14:                                               ; preds = %12
  %15 = tail call noundef zeroext i1 @_ZNK4llvm8Function14hasFnAttributeENS_9Attribute8AttrKindE(ptr noundef nonnull align 8 dereferenceable(136) %1, i32 noundef 57) #19
  br i1 %15, label %_ZN4llvm21isScopedEHPersonalityENS_13EHPersonalityE.exit, label %16

16:                                               ; preds = %14
  %17 = getelementptr inbounds nuw i8, ptr %1, i64 2
  %18 = load i16, ptr %17, align 2
  %19 = and i16 %18, 8
  %.not = icmp eq i16 %19, 0
  br i1 %.not, label %_ZN4llvm21isScopedEHPersonalityENS_13EHPersonalityE.exit, label %20

20:                                               ; preds = %16
  %21 = tail call noundef ptr @_ZNK4llvm8Function16getPersonalityFnEv(ptr noundef nonnull align 8 dereferenceable(136) %1) #19
  %22 = tail call noundef i32 @_ZN4llvm21classifyEHPersonalityEPKNS_5ValueE(ptr noundef %21) #19
  %23 = icmp ult i32 %22, 13
  br i1 %23, label %switch.lookup, label %_ZN4llvm21isScopedEHPersonalityENS_13EHPersonalityE.exit

switch.lookup:                                    ; preds = %20
  %switch.cast = trunc nuw i32 %22 to i13
  %switch.downshift = lshr i13 2175, %switch.cast
  %switch.masked = trunc i13 %switch.downshift to i1
  br label %_ZN4llvm21isScopedEHPersonalityENS_13EHPersonalityE.exit

_ZN4llvm21isScopedEHPersonalityENS_13EHPersonalityE.exit: ; preds = %switch.lookup, %20, %16, %8, %10, %12, %14, %6, %4, %2
  %.0 = phi i1 [ false, %2 ], [ false, %4 ], [ false, %6 ], [ false, %14 ], [ false, %12 ], [ false, %10 ], [ false, %8 ], [ true, %20 ], [ true, %16 ], [ %switch.masked, %switch.lookup ]
  ret i1 %.0
}